target datalayout = "e-m:e-p270:32:32-p271:32:32-p272:64:64-i64:64-i128:128-f80:128-n8:16:32:64-S128"
target triple = "x86_64-pc-linux-gnu"

%struct.SortTuple = type { ptr, i64, i8, i32 }

; Function Attrs: inlinehint nounwind uwtable
define internal i64 @PointerGetDatum(ptr noundef %0) #3 {
  %2 = alloca ptr, align 8
  store ptr %0, ptr %2, align 8
  %3 = load ptr, ptr %2, align 8
  %4 = ptrtoint ptr %3 to i64
  ret i64 %4
}

; Function Attrs: nounwind uwtable
define internal void @removeabbrev_datum(ptr noundef %0, ptr noundef %1, i32 noundef %2) #0 {
  %4 = alloca ptr, align 8
  %5 = alloca ptr, align 8
  %6 = alloca i32, align 4
  %7 = alloca i32, align 4
  store ptr %0, ptr %4, align 8
  store ptr %1, ptr %5, align 8
  store i32 %2, ptr %6, align 4
  call void @llvm.lifetime.start.p0(i64 4, ptr %7) #6
  store i32 0, ptr %7, align 4
  br label %8

8:                                                ; preds = %25, %3
  %9 = load i32, ptr %7, align 4
  %10 = load i32, ptr %6, align 4
  %11 = icmp slt i32 %9, %10
  br i1 %11, label %12, label %28

12:                                               ; preds = %8
  %13 = load ptr, ptr %5, align 8
  %14 = load i32, ptr %7, align 4
  %15 = sext i32 %14 to i64
  %16 = getelementptr inbounds %struct.SortTuple, ptr %13, i64 %15
  %17 = getelementptr inbounds nuw %struct.SortTuple, ptr %16, i32 0, i32 0
  %18 = load ptr, ptr %17, align 8
  %19 = call i64 @PointerGetDatum(ptr noundef %18)
  %20 = load ptr, ptr %5, align 8
  %21 = load i32, ptr %7, align 4
  %22 = sext i32 %21 to i64
  %23 = getelementptr inbounds %struct.SortTuple, ptr %20, i64 %22
  %24 = getelementptr inbounds nuw %struct.SortTuple, ptr %23, i32 0, i32 1
  store i64 %19, ptr %24, align 8
  br label %25

25:                                               ; preds = %12
  %26 = load i32, ptr %7, align 4
  %27 = add i32 %26, 1
  store i32 %27, ptr %7, align 4
  br label %8, !llvm.loop !19

28:                                               ; preds = %8
  call void @llvm.lifetime.end.p0(i64 4, ptr %7) #6
  ret void
}